target datalayout = "e-m:e-p270:32:32-p271:32:32-p272:64:64-i64:64-i128:128-f80:128-n8:16:32:64-S128"
target triple = "x86_64-pc-linux-gnu"

%struct.Vec_Int_t_ = type { i32, i32, ptr }
%struct.Dec_Graph_t_ = type { i32, i32, i32, i32, ptr, %struct.Dec_Edge_t_ }
%struct.Dec_Edge_t_ = type { i32 }
%struct.Dec_Node_t_ = type { %struct.Dec_Edge_t_, %struct.Dec_Edge_t_, %union.anon.1, i32 }
%union.anon.1 = type { ptr }

; Function Attrs: nounwind uwtable
define internal i32 @Dec_EdgeCreate(i32 noundef %0, i32 noundef %1) #0 {
  %3 = alloca %struct.Dec_Edge_t_, align 4
  %4 = alloca i32, align 4
  %5 = alloca i32, align 4
  store i32 %0, ptr %4, align 4
  store i32 %1, ptr %5, align 4
  %6 = load i32, ptr %5, align 4
  %7 = load i32, ptr %3, align 4
  %8 = and i32 %6, 1
  %9 = and i32 %7, -2
  %10 = or i32 %9, %8
  store i32 %10, ptr %3, align 4
  %11 = load i32, ptr %4, align 4
  %12 = load i32, ptr %3, align 4
  %13 = and i32 %11, 1073741823
  %14 = shl i32 %13, 1
  %15 = and i32 %12, -2147483647
  %16 = or i32 %15, %14
  store i32 %16, ptr %3, align 4
  %17 = getelementptr inbounds %struct.Dec_Edge_t_, ptr %3, i32 0, i32 0
  %18 = load i32, ptr %17, align 4
  ret i32 %18
}

; Function Attrs: nounwind uwtable
define internal ptr @Dec_GraphNode(ptr noundef %0, i32 noundef %1) #0 {
  %3 = alloca ptr, align 8
  %4 = alloca i32, align 4
  store ptr %0, ptr %3, align 8
  store i32 %1, ptr %4, align 4
  %5 = load ptr, ptr %3, align 8
  %6 = getelementptr inbounds %struct.Dec_Graph_t_, ptr %5, i32 0, i32 4
  %7 = load ptr, ptr %6, align 8
  %8 = load i32, ptr %4, align 4
  %9 = sext i32 %8 to i64
  %10 = getelementptr inbounds %struct.Dec_Node_t_, ptr %7, i64 %9
  ret ptr %10
}

; Function Attrs: nounwind uwtable
define internal i32 @Dec_IntToEdge(i32 noundef %0) #0 {
  %2 = alloca %struct.Dec_Edge_t_, align 4
  %3 = alloca i32, align 4
  store i32 %0, ptr %3, align 4
  %4 = load i32, ptr %3, align 4
  %5 = lshr i32 %4, 1
  %6 = load i32, ptr %3, align 4
  %7 = and i32 %6, 1
  %8 = call i32 @Dec_EdgeCreate(i32 noundef %5, i32 noundef %7)
  %9 = getelementptr inbounds %struct.Dec_Edge_t_, ptr %2, i32 0, i32 0
  store i32 %8, ptr %9, align 4
  %10 = getelementptr inbounds %struct.Dec_Edge_t_, ptr %2, i32 0, i32 0
  %11 = load i32, ptr %10, align 4
  ret i32 %11
}

; Function Attrs: nounwind uwtable
define void @Abc_NodeEdgeDsdPushOrdered(ptr noundef %0, ptr noundef %1, i32 noundef %2) #0 {
  %4 = alloca ptr, align 8
  %5 = alloca ptr, align 8
  %6 = alloca i32, align 4
  %7 = alloca i32, align 4
  %8 = alloca i32, align 4
  %9 = alloca i32, align 4
  %10 = alloca %struct.Dec_Edge_t_, align 4
  %11 = alloca %struct.Dec_Edge_t_, align 4
  store ptr %0, ptr %4, align 8
  store ptr %1, ptr %5, align 8
  store i32 %2, ptr %6, align 4
  %12 = load ptr, ptr %5, align 8
  %13 = getelementptr inbounds %struct.Vec_Int_t_, ptr %12, i32 0, i32 1
  %14 = load i32, ptr %13, align 4
  %15 = add nsw i32 %14, 1
  store i32 %15, ptr %13, align 4
  %16 = load ptr, ptr %5, align 8
  %17 = getelementptr inbounds %struct.Vec_Int_t_, ptr %16, i32 0, i32 1
  %18 = load i32, ptr %17, align 4
  %19 = sub nsw i32 %18, 2
  store i32 %19, ptr %7, align 4
  br label %20

20:                                               ; preds = %72, %3
  %21 = load i32, ptr %7, align 4
  %22 = icmp sge i32 %21, 0
  br i1 %22, label %23, label %75

23:                                               ; preds = %20
  %24 = load ptr, ptr %5, align 8
  %25 = getelementptr inbounds %struct.Vec_Int_t_, ptr %24, i32 0, i32 2
  %26 = load ptr, ptr %25, align 8
  %27 = load i32, ptr %7, align 4
  %28 = sext i32 %27 to i64
  %29 = getelementptr inbounds i32, ptr %26, i64 %28
  %30 = load i32, ptr %29, align 4
  %31 = call i32 @Dec_IntToEdge(i32 noundef %30)
  %32 = getelementptr inbounds %struct.Dec_Edge_t_, ptr %10, i32 0, i32 0
  store i32 %31, ptr %32, align 4
  %33 = load i32, ptr %10, align 4
  %34 = lshr i32 %33, 1
  %35 = and i32 %34, 1073741823
  store i32 %35, ptr %8, align 4
  %36 = load i32, ptr %6, align 4
  %37 = call i32 @Dec_IntToEdge(i32 noundef %36)
  %38 = getelementptr inbounds %struct.Dec_Edge_t_, ptr %11, i32 0, i32 0
  store i32 %37, ptr %38, align 4
  %39 = load i32, ptr %11, align 4
  %40 = lshr i32 %39, 1
  %41 = and i32 %40, 1073741823
  store i32 %41, ptr %9, align 4
  %42 = load ptr, ptr %4, align 8
  %43 = load i32, ptr %8, align 4
  %44 = call ptr @Dec_GraphNode(ptr noundef %42, i32 noundef %43)
  %45 = getelementptr inbounds %struct.Dec_Node_t_, ptr %44, i32 0, i32 3
  %46 = load i32, ptr %45, align 8
  %47 = and i32 %46, 16383
  %48 = load ptr, ptr %4, align 8
  %49 = load i32, ptr %9, align 4
  %50 = call ptr @Dec_GraphNode(ptr noundef %48, i32 noundef %49)
  %51 = getelementptr inbounds %struct.Dec_Node_t_, ptr %50, i32 0, i32 3
  %52 = load i32, ptr %51, align 8
  %53 = and i32 %52, 16383
  %54 = icmp sle i32 %47, %53
  br i1 %54, label %55, label %70

55:                                               ; preds = %23
  %56 = load ptr, ptr %5, align 8
  %57 = getelementptr inbounds %struct.Vec_Int_t_, ptr %56, i32 0, i32 2
  %58 = load ptr, ptr %57, align 8
  %59 = load i32, ptr %7, align 4
  %60 = sext i32 %59 to i64
  %61 = getelementptr inbounds i32, ptr %58, i64 %60
  %62 = load i32, ptr %61, align 4
  %63 = load ptr, ptr %5, align 8
  %64 = getelementptr inbounds %struct.Vec_Int_t_, ptr %63, i32 0, i32 2
  %65 = load ptr, ptr %64, align 8
  %66 = load i32, ptr %7, align 4
  %67 = add nsw i32 %66, 1
  %68 = sext i32 %67 to i64
  %69 = getelementptr inbounds i32, ptr %65, i64 %68
  store i32 %62, ptr %69, align 4
  br label %71

70:                                               ; preds = %23
  br label %75

71:                                               ; preds = %55
  br label %72

72:                                               ; preds = %71
  %73 = load i32, ptr %7, align 4
  %74 = add nsw i32 %73, -1
  store i32 %74, ptr %7, align 4
  br label %20, !llvm.loop !16

75:                                               ; preds = %70, %20
  %76 = load i32, ptr %6, align 4
  %77 = load ptr, ptr %5, align 8
  %78 = getelementptr inbounds %struct.Vec_Int_t_, ptr %77, i32 0, i32 2
  %79 = load ptr, ptr %78, align 8
  %80 = load i32, ptr %7, align 4
  %81 = add nsw i32 %80, 1
  %82 = sext i32 %81 to i64
  %83 = getelementptr inbounds i32, ptr %79, i64 %82
  store i32 %76, ptr %83, align 4
  ret void
}