; Function Attrs: nofree norecurse nosync nounwind memory(readwrite, inaccessiblemem: none) uwtable
define void @Abc_NodeEdgeDsdPushOrdered(ptr noundef readonly captures(none) %0, ptr noundef captures(none) %1, i32 noundef %2) local_unnamed_addr #3 {
  %4 = getelementptr inbounds nuw i8, ptr %1, i64 4
  %5 = load i32, ptr %4, align 4
  %6 = add nsw i32 %5, 1
  store i32 %6, ptr %4, align 4
  %7 = getelementptr inbounds nuw i8, ptr %1, i64 8
  %8 = icmp sgt i32 %5, 0
  br i1 %8, label %.lr.ph, label %._crit_edge

.lr.ph:                                           ; preds = %3
  %9 = lshr i32 %2, 1
  %10 = and i32 %9, 1073741823
  %11 = getelementptr i8, ptr %0, i64 16
  %12 = zext nneg i32 %10 to i64
  %13 = zext nneg i32 %5 to i64
  br label %14

14:                                               ; preds = %.lr.ph, %27
  %indvars.iv = phi i64 [ %13, %.lr.ph ], [ %indvars.iv.next, %27 ]
  %indvars.iv.next = add nsw i64 %indvars.iv, -1
  %15 = load ptr, ptr %7, align 8
  %16 = getelementptr inbounds nuw i32, ptr %15, i64 %indvars.iv.next
  %17 = load i32, ptr %16, align 4
  %18 = lshr i32 %17, 1
  %19 = and i32 %18, 1073741823
  %.val18 = load ptr, ptr %11, align 8
  %20 = zext nneg i32 %19 to i64
  %21 = getelementptr inbounds nuw %struct.Dec_Node_t_, ptr %.val18, i64 %20, i32 3
  %22 = load i32, ptr %21, align 8
  %23 = and i32 %22, 16383
  %24 = getelementptr inbounds nuw %struct.Dec_Node_t_, ptr %.val18, i64 %12, i32 3
  %25 = load i32, ptr %24, align 8
  %26 = and i32 %25, 16383
  %.not = icmp samesign ugt i32 %23, %26
  br i1 %.not, label %._crit_edge.loopexit.split.loop.exit, label %27

27:                                               ; preds = %14
  %28 = getelementptr inbounds nuw i32, ptr %15, i64 %indvars.iv
  store i32 %17, ptr %28, align 4
  %29 = icmp samesign ugt i64 %indvars.iv, 1
  br i1 %29, label %14, label %._crit_edge, !llvm.loop !19

._crit_edge.loopexit.split.loop.exit:             ; preds = %14
  %30 = trunc nuw nsw i64 %indvars.iv to i32
  br label %._crit_edge

._crit_edge:                                      ; preds = %27, %._crit_edge.loopexit.split.loop.exit, %3
  %.0.in.lcssa = phi i32 [ %5, %3 ], [ %30, %._crit_edge.loopexit.split.loop.exit ], [ 0, %27 ]
  %31 = load ptr, ptr %7, align 8
  %32 = sext i32 %.0.in.lcssa to i64
  %33 = getelementptr inbounds i32, ptr %31, i64 %32
  store i32 %2, ptr %33, align 4
  ret void
}